target datalayout = "e-m:e-p270:32:32-p271:32:32-p272:64:64-i64:64-i128:128-f80:128-n8:16:32:64-S128"
target triple = "x86_64-pc-linux-gnu"

%struct.nghttp2_session = type { %struct.nghttp2_map, %struct.nghttp2_outbound_queue, %struct.nghttp2_outbound_queue, %struct.nghttp2_outbound_queue, [8 x %struct.anon], %struct.nghttp2_active_outbound_item, %struct.nghttp2_inbound_frame, %struct.nghttp2_hd_deflater, %struct.nghttp2_hd_inflater, %struct.nghttp2_session_callbacks, %struct.nghttp2_mem, ptr, ptr, %struct.nghttp2_ratelim, i64, i64, i64, i64, i64, i64, i64, i64, i64, i64, i64, i64, i64, i64, i32, i32, i32, i32, i32, i32, i32, i32, i32, i32, i32, i32, i8, %struct.nghttp2_settings_storage, %struct.nghttp2_settings_storage, i32, i32, i32, i8, i8, i8, i8, i8, i8, [32 x i8] }
%struct.nghttp2_map = type { ptr, ptr, i64, i64 }
%struct.nghttp2_outbound_queue = type { ptr, ptr, i64 }
%struct.anon = type { %struct.nghttp2_pq }
%struct.nghttp2_pq = type { ptr, ptr, i64, i64, ptr }
%struct.nghttp2_active_outbound_item = type { ptr, %struct.nghttp2_bufs, i32 }
%struct.nghttp2_bufs = type { ptr, ptr, ptr, i64, i64, i64, i64, i64 }
%struct.nghttp2_inbound_frame = type { %union.nghttp2_frame, %union.nghttp2_ext_frame_payload, ptr, %struct.nghttp2_buf, %struct.nghttp2_buf, ptr, i64, i64, i64, i64, i32, [32 x i8] }
%union.nghttp2_frame = type { %struct.nghttp2_headers }
%struct.nghttp2_headers = type { %struct.nghttp2_frame_hd, i64, %struct.nghttp2_priority_spec, ptr, i64, i32 }
%struct.nghttp2_frame_hd = type { i64, i32, i8, i8, i8 }
%struct.nghttp2_priority_spec = type { i32, i32, i8 }
%union.nghttp2_ext_frame_payload = type { %struct.nghttp2_ext_altsvc }
%struct.nghttp2_ext_altsvc = type { ptr, i64, ptr, i64 }
%struct.nghttp2_buf = type { ptr, ptr, ptr, ptr, ptr }
%struct.nghttp2_hd_deflater = type { %struct.nghttp2_hd_context, %struct.nghttp2_hd_map, i64, i64, i8 }
%struct.nghttp2_hd_context = type { %struct.nghttp2_hd_ringbuf, ptr, i64, i64, i32, i8 }
%struct.nghttp2_hd_ringbuf = type { ptr, i64, i64, i64 }
%struct.nghttp2_hd_map = type { [128 x ptr] }
%struct.nghttp2_hd_inflater = type { %struct.nghttp2_hd_context, %struct.nghttp2_hd_huff_decode_context, %struct.nghttp2_buf, %struct.nghttp2_buf, ptr, ptr, ptr, ptr, i64, i64, i64, i64, i64, i32, i32, i8, i8, i8 }
%struct.nghttp2_hd_huff_decode_context = type { i16 }
%struct.nghttp2_session_callbacks = type { ptr, ptr, ptr, ptr, ptr, ptr, ptr, ptr, ptr, ptr, ptr, ptr, ptr, ptr, ptr, ptr, ptr, ptr, ptr, ptr, ptr, ptr, ptr, ptr, ptr, ptr, ptr, ptr }
%struct.nghttp2_mem = type { ptr, ptr, ptr, ptr, ptr }
%struct.nghttp2_ratelim = type { i64, i64, i64, i64 }
%struct.nghttp2_settings_storage = type { i32, i32, i32, i32, i32, i32, i32, i32 }

@.str.1 = private unnamed_addr constant [115 x i8] c"generated/home/dtcxzyw/WorkSpace/Projects/compilers/llvm-opt-benchmark/bench/nghttp2/nghttp2/lib/nghttp2_session.c\00", align 1
@.str.4 = private unnamed_addr constant [21 x i8] c"nghttp2_is_fatal(rv)\00", align 1
@__PRETTY_FUNCTION__.nghttp2_session_mem_send2 = private unnamed_addr constant [77 x i8] c"nghttp2_ssize nghttp2_session_mem_send2(nghttp2_session *, const uint8_t **)\00", align 1

; Function Attrs: nounwind uwtable
define i32 @nghttp2_is_fatal(i32 noundef %0) #0 {
  %2 = alloca i32, align 4
  store i32 %0, ptr %2, align 4, !tbaa !3
  %3 = load i32, ptr %2, align 4, !tbaa !3
  %4 = icmp slt i32 %3, -900
  %5 = zext i1 %4 to i32
  ret i32 %5
}

; Function Attrs: nounwind uwtable
define i64 @nghttp2_session_mem_send2(ptr noundef %0, ptr noundef %1) #0 {
  %3 = alloca i64, align 8
  %4 = alloca ptr, align 8
  %5 = alloca ptr, align 8
  %6 = alloca i32, align 4
  %7 = alloca i64, align 8
  %8 = alloca i32, align 4
  store ptr %0, ptr %4, align 8, !tbaa !7
  store ptr %1, ptr %5, align 8, !tbaa !151
  call void @llvm.lifetime.start.p0(i64 4, ptr %6) #10
  call void @llvm.lifetime.start.p0(i64 8, ptr %7) #10
  %9 = load ptr, ptr %5, align 8, !tbaa !151
  store ptr null, ptr %9, align 8, !tbaa !38
  %10 = load ptr, ptr %4, align 8, !tbaa !7
  %11 = load ptr, ptr %5, align 8, !tbaa !151
  %12 = call i64 @nghttp2_session_mem_send_internal(ptr noundef %10, ptr noundef %11, i32 noundef 1)
  store i64 %12, ptr %7, align 8, !tbaa !41
  %13 = load i64, ptr %7, align 8, !tbaa !41
  %14 = icmp sle i64 %13, 0
  br i1 %14, label %15, label %17

15:                                               ; preds = %2
  %16 = load i64, ptr %7, align 8, !tbaa !41
  store i64 %16, ptr %3, align 8
  store i32 1, ptr %8, align 4
  br label %40

17:                                               ; preds = %2
  %18 = load ptr, ptr %4, align 8, !tbaa !7
  %19 = getelementptr inbounds nuw %struct.nghttp2_session, ptr %18, i32 0, i32 5
  %20 = getelementptr inbounds nuw %struct.nghttp2_active_outbound_item, ptr %19, i32 0, i32 0
  %21 = load ptr, ptr %20, align 8, !tbaa !111
  %22 = icmp ne ptr %21, null
  br i1 %22, label %23, label %38

23:                                               ; preds = %17
  %24 = load ptr, ptr %4, align 8, !tbaa !7
  %25 = call i32 @session_after_frame_sent1(ptr noundef %24)
  store i32 %25, ptr %6, align 4, !tbaa !3
  %26 = load i32, ptr %6, align 4, !tbaa !3
  %27 = icmp slt i32 %26, 0
  br i1 %27, label %28, label %37

28:                                               ; preds = %23
  %29 = load i32, ptr %6, align 4, !tbaa !3
  %30 = call i32 @nghttp2_is_fatal(i32 noundef %29)
  %31 = icmp ne i32 %30, 0
  br i1 %31, label %32, label %33

32:                                               ; preds = %28
  br label %34

33:                                               ; preds = %28
  call void @__assert_fail(ptr noundef @.str.4, ptr noundef @.str.1, i32 noundef 3099, ptr noundef @__PRETTY_FUNCTION__.nghttp2_session_mem_send2) #12
  unreachable

34:                                               ; preds = %32
  %35 = load i32, ptr %6, align 4, !tbaa !3
  %36 = sext i32 %35 to i64
  store i64 %36, ptr %3, align 8
  store i32 1, ptr %8, align 4
  br label %40

37:                                               ; preds = %23
  br label %38

38:                                               ; preds = %37, %17
  %39 = load i64, ptr %7, align 8, !tbaa !41
  store i64 %39, ptr %3, align 8
  store i32 1, ptr %8, align 4
  br label %40

40:                                               ; preds = %38, %34, %15
  call void @llvm.lifetime.end.p0(i64 8, ptr %7) #10
  call void @llvm.lifetime.end.p0(i64 4, ptr %6) #10
  %41 = load i64, ptr %3, align 8
  ret i64 %41
}

; Function Attrs: nounwind uwtable
define i64 @nghttp2_session_mem_send(ptr noundef %0, ptr noundef %1) #0 {
  %3 = alloca ptr, align 8
  %4 = alloca ptr, align 8
  store ptr %0, ptr %3, align 8, !tbaa !7
  store ptr %1, ptr %4, align 8, !tbaa !151
  %5 = load ptr, ptr %3, align 8, !tbaa !7
  %6 = load ptr, ptr %4, align 8, !tbaa !151
  %7 = call i64 @nghttp2_session_mem_send2(ptr noundef %5, ptr noundef %6)
  ret i64 %7
}